target datalayout = "e-m:e-p270:32:32-p271:32:32-p272:64:64-i64:64-i128:128-f80:128-n8:16:32:64-S128"
target triple = "x86_64-pc-linux-gnu"

%struct.AVProbeData = type { ptr, ptr, i32, ptr }

@.str.135 = private unnamed_addr constant [5 x i8] c"STTT\00", align 1
@.str.136 = private unnamed_addr constant [5 x i8] c"TIMG\00", align 1
@.str.137 = private unnamed_addr constant [5 x i8] c"XIMG\00", align 1

; Function Attrs: alwaysinline nounwind willreturn memory(none) uwtable
define internal zeroext i16 @av_bswap16(i16 noundef zeroext %0) #10 {
  %2 = alloca i16, align 2
  store i16 %0, ptr %2, align 2, !tbaa !146
  %3 = load i16, ptr %2, align 2, !tbaa !146
  %4 = zext i16 %3 to i32
  %5 = ashr i32 %4, 8
  %6 = load i16, ptr %2, align 2, !tbaa !146
  %7 = zext i16 %6 to i32
  %8 = shl i32 %7, 8
  %9 = or i32 %5, %8
  %10 = trunc i32 %9 to i16
  store i16 %10, ptr %2, align 2, !tbaa !146
  %11 = load i16, ptr %2, align 2, !tbaa !146
  ret i16 %11
}

; Function Attrs: nounwind uwtable
define internal i32 @gem_probe(ptr noundef %0) #0 {
  %2 = alloca i32, align 4
  %3 = alloca ptr, align 8
  %4 = alloca ptr, align 8
  %5 = alloca i32, align 4
  store ptr %0, ptr %3, align 8, !tbaa !139
  call void @llvm.lifetime.start.p0(i64 8, ptr %4) #12
  %6 = load ptr, ptr %3, align 8, !tbaa !139
  %7 = getelementptr inbounds nuw %struct.AVProbeData, ptr %6, i32 0, i32 1
  %8 = load ptr, ptr %7, align 8, !tbaa !96
  store ptr %8, ptr %4, align 8, !tbaa !76
  %9 = load ptr, ptr %4, align 8, !tbaa !76
  %10 = load i16, ptr %9, align 1, !tbaa !77
  %11 = call zeroext i16 @av_bswap16(i16 noundef zeroext %10) #15
  %12 = zext i16 %11 to i32
  %13 = icmp sge i32 %12, 1
  br i1 %13, label %14, label %110

14:                                               ; preds = %1
  %15 = load ptr, ptr %4, align 8, !tbaa !76
  %16 = load i16, ptr %15, align 1, !tbaa !77
  %17 = call zeroext i16 @av_bswap16(i16 noundef zeroext %16) #15
  %18 = zext i16 %17 to i32
  %19 = icmp sle i32 %18, 3
  br i1 %19, label %20, label %110

20:                                               ; preds = %14
  %21 = load ptr, ptr %4, align 8, !tbaa !76
  %22 = getelementptr inbounds i8, ptr %21, i64 2
  %23 = load i16, ptr %22, align 1, !tbaa !77
  %24 = call zeroext i16 @av_bswap16(i16 noundef zeroext %23) #15
  %25 = zext i16 %24 to i32
  %26 = icmp sge i32 %25, 8
  br i1 %26, label %27, label %110

27:                                               ; preds = %20
  %28 = load ptr, ptr %4, align 8, !tbaa !76
  %29 = getelementptr inbounds i8, ptr %28, i64 2
  %30 = load i16, ptr %29, align 1, !tbaa !77
  %31 = call zeroext i16 @av_bswap16(i16 noundef zeroext %30) #15
  %32 = zext i16 %31 to i32
  %33 = icmp sle i32 %32, 779
  br i1 %33, label %34, label %110

34:                                               ; preds = %27
  %35 = load ptr, ptr %4, align 8, !tbaa !76
  %36 = getelementptr inbounds i8, ptr %35, i64 4
  %37 = load i16, ptr %36, align 1, !tbaa !77
  %38 = call zeroext i16 @av_bswap16(i16 noundef zeroext %37) #15
  %39 = zext i16 %38 to i32
  %40 = icmp sgt i32 %39, 0
  br i1 %40, label %41, label %110

41:                                               ; preds = %34
  %42 = load ptr, ptr %4, align 8, !tbaa !76
  %43 = getelementptr inbounds i8, ptr %42, i64 4
  %44 = load i16, ptr %43, align 1, !tbaa !77
  %45 = call zeroext i16 @av_bswap16(i16 noundef zeroext %44) #15
  %46 = zext i16 %45 to i32
  %47 = icmp sle i32 %46, 32
  br i1 %47, label %48, label %110

48:                                               ; preds = %41
  %49 = load ptr, ptr %4, align 8, !tbaa !76
  %50 = getelementptr inbounds i8, ptr %49, i64 6
  %51 = load i16, ptr %50, align 1, !tbaa !77
  %52 = call zeroext i16 @av_bswap16(i16 noundef zeroext %51) #15
  %53 = zext i16 %52 to i32
  %54 = icmp sgt i32 %53, 0
  br i1 %54, label %55, label %110

55:                                               ; preds = %48
  %56 = load ptr, ptr %4, align 8, !tbaa !76
  %57 = getelementptr inbounds i8, ptr %56, i64 6
  %58 = load i16, ptr %57, align 1, !tbaa !77
  %59 = call zeroext i16 @av_bswap16(i16 noundef zeroext %58) #15
  %60 = zext i16 %59 to i32
  %61 = icmp sle i32 %60, 8
  br i1 %61, label %62, label %110

62:                                               ; preds = %55
  %63 = load ptr, ptr %4, align 8, !tbaa !76
  %64 = getelementptr inbounds i8, ptr %63, i64 8
  %65 = load i16, ptr %64, align 1, !tbaa !77
  %66 = call zeroext i16 @av_bswap16(i16 noundef zeroext %65) #15
  %67 = zext i16 %66 to i32
  %68 = icmp ne i32 %67, 0
  br i1 %68, label %69, label %110

69:                                               ; preds = %62
  %70 = load ptr, ptr %4, align 8, !tbaa !76
  %71 = getelementptr inbounds i8, ptr %70, i64 10
  %72 = load i16, ptr %71, align 1, !tbaa !77
  %73 = call zeroext i16 @av_bswap16(i16 noundef zeroext %72) #15
  %74 = zext i16 %73 to i32
  %75 = icmp ne i32 %74, 0
  br i1 %75, label %76, label %110

76:                                               ; preds = %69
  %77 = load ptr, ptr %4, align 8, !tbaa !76
  %78 = getelementptr inbounds i8, ptr %77, i64 12
  %79 = load i16, ptr %78, align 1, !tbaa !77
  %80 = call zeroext i16 @av_bswap16(i16 noundef zeroext %79) #15
  %81 = zext i16 %80 to i32
  %82 = icmp ne i32 %81, 0
  br i1 %82, label %83, label %110

83:                                               ; preds = %76
  %84 = load ptr, ptr %4, align 8, !tbaa !76
  %85 = getelementptr inbounds i8, ptr %84, i64 14
  %86 = load i16, ptr %85, align 1, !tbaa !77
  %87 = call zeroext i16 @av_bswap16(i16 noundef zeroext %86) #15
  %88 = zext i16 %87 to i32
  %89 = icmp ne i32 %88, 0
  br i1 %89, label %90, label %110

90:                                               ; preds = %83
  %91 = load ptr, ptr %4, align 8, !tbaa !76
  %92 = getelementptr inbounds i8, ptr %91, i64 16
  %93 = load i32, ptr %92, align 1, !tbaa !77
  %94 = load i32, ptr @.str.135, align 1, !tbaa !77
  %95 = icmp eq i32 %93, %94
  br i1 %95, label %108, label %96

96:                                               ; preds = %90
  %97 = load ptr, ptr %4, align 8, !tbaa !76
  %98 = getelementptr inbounds i8, ptr %97, i64 16
  %99 = load i32, ptr %98, align 1, !tbaa !77
  %100 = load i32, ptr @.str.136, align 1, !tbaa !77
  %101 = icmp eq i32 %99, %100
  br i1 %101, label %108, label %102

102:                                              ; preds = %96
  %103 = load ptr, ptr %4, align 8, !tbaa !76
  %104 = getelementptr inbounds i8, ptr %103, i64 16
  %105 = load i32, ptr %104, align 1, !tbaa !77
  %106 = load i32, ptr @.str.137, align 1, !tbaa !77
  %107 = icmp eq i32 %105, %106
  br i1 %107, label %108, label %109

108:                                              ; preds = %102, %96, %90
  store i32 51, ptr %2, align 4
  store i32 1, ptr %5, align 4
  br label %111

109:                                              ; preds = %102
  store i32 12, ptr %2, align 4
  store i32 1, ptr %5, align 4
  br label %111

110:                                              ; preds = %83, %76, %69, %62, %55, %48, %41, %34, %27, %20, %14, %1
  store i32 0, ptr %2, align 4
  store i32 1, ptr %5, align 4
  br label %111

111:                                              ; preds = %110, %109, %108
  call void @llvm.lifetime.end.p0(i64 8, ptr %4) #12
  %112 = load i32, ptr %2, align 4
  ret i32 %112
}