; Function Attrs: mustprogress nofree norecurse nosync nounwind willreturn memory(read, inaccessiblemem: none) uwtable
define internal range(i32 0, 52) i32 @gem_probe(ptr noundef readonly captures(none) %0) #8 {
  %2 = getelementptr inbounds nuw i8, ptr %0, i64 8
  %3 = load ptr, ptr %2, align 8, !tbaa !90
  %4 = load i16, ptr %3, align 1, !tbaa !68
  %5 = tail call i16 @llvm.bswap.i16(i16 %4)
  %.not = icmp ne i16 %4, 0
  %6 = icmp ult i16 %5, 4
  %or.cond = and i1 %.not, %6
  br i1 %or.cond, label %7, label %38

7:                                                ; preds = %1
  %8 = getelementptr inbounds nuw i8, ptr %3, i64 2
  %9 = load i16, ptr %8, align 1, !tbaa !68
  %10 = tail call i16 @llvm.bswap.i16(i16 %9)
  %11 = add i16 %10, -8
  %or.cond27 = icmp ult i16 %11, 772
  br i1 %or.cond27, label %12, label %38

12:                                               ; preds = %7
  %13 = getelementptr inbounds nuw i8, ptr %3, i64 4
  %14 = load i16, ptr %13, align 1, !tbaa !68
  %15 = tail call i16 @llvm.bswap.i16(i16 %14)
  %.not21 = icmp ne i16 %14, 0
  %16 = icmp ult i16 %15, 33
  %or.cond28 = and i1 %.not21, %16
  br i1 %or.cond28, label %17, label %38

17:                                               ; preds = %12
  %18 = getelementptr inbounds nuw i8, ptr %3, i64 6
  %19 = load i16, ptr %18, align 1, !tbaa !68
  %20 = tail call i16 @llvm.bswap.i16(i16 %19)
  %.not22 = icmp ne i16 %19, 0
  %21 = icmp ult i16 %20, 9
  %or.cond29 = and i1 %.not22, %21
  br i1 %or.cond29, label %22, label %38

22:                                               ; preds = %17
  %23 = getelementptr inbounds nuw i8, ptr %3, i64 8
  %24 = load i16, ptr %23, align 1, !tbaa !68
  %.not23 = icmp eq i16 %24, 0
  br i1 %.not23, label %38, label %25

25:                                               ; preds = %22
  %26 = getelementptr inbounds nuw i8, ptr %3, i64 10
  %27 = load i16, ptr %26, align 1, !tbaa !68
  %.not24 = icmp eq i16 %27, 0
  br i1 %.not24, label %38, label %28

28:                                               ; preds = %25
  %29 = getelementptr inbounds nuw i8, ptr %3, i64 12
  %30 = load i16, ptr %29, align 1, !tbaa !68
  %.not25 = icmp eq i16 %30, 0
  br i1 %.not25, label %38, label %31

31:                                               ; preds = %28
  %32 = getelementptr inbounds nuw i8, ptr %3, i64 14
  %33 = load i16, ptr %32, align 1, !tbaa !68
  %.not26 = icmp eq i16 %33, 0
  br i1 %.not26, label %38, label %34

34:                                               ; preds = %31
  %35 = getelementptr inbounds nuw i8, ptr %3, i64 16
  %36 = load i32, ptr %35, align 1, !tbaa !68
  switch i32 %36, label %37 [
    i32 1414812755, label %38
    i32 1196247380, label %38
    i32 1196247384, label %38
  ]

37:                                               ; preds = %34
  br label %38

38:                                               ; preds = %1, %7, %12, %17, %22, %25, %28, %31, %34, %34, %34, %37
  %.0 = phi i32 [ 12, %37 ], [ 51, %34 ], [ 51, %34 ], [ 51, %34 ], [ 0, %31 ], [ 0, %28 ], [ 0, %25 ], [ 0, %22 ], [ 0, %17 ], [ 0, %12 ], [ 0, %7 ], [ 0, %1 ]
  ret i32 %.0
}